; Function Attrs: mustprogress nofree norecurse nosync nounwind willreturn memory(read, inaccessiblemem: none) uwtable
define { ptr, ptr } @_Z26dd_constraints_nlocalatomsPK12gmx_domdec_t(ptr noundef readonly %0) local_unnamed_addr #2 {
  %.not = icmp eq ptr %0, null
  br i1 %.not, label %14, label %2

2:                                                ; preds = %1
  %3 = getelementptr inbounds nuw i8, ptr %0, i64 856
  %4 = load ptr, ptr %3, align 8, !tbaa !9
  %.not3 = icmp eq ptr %4, null
  br i1 %.not3, label %14, label %5

5:                                                ; preds = %2
  %6 = getelementptr inbounds nuw i8, ptr %4, i64 80
  %7 = load ptr, ptr %6, align 8, !tbaa !11
  %8 = getelementptr inbounds nuw i8, ptr %4, i64 88
  %9 = load ptr, ptr %8, align 8, !tbaa !14
  %10 = ptrtoint ptr %9 to i64
  %11 = ptrtoint ptr %7 to i64
  %12 = sub i64 %10, %11
  %13 = getelementptr inbounds nuw i8, ptr %7, i64 %12
  br label %14

14:                                               ; preds = %1, %2, %5
  %.sroa.0.0 = phi ptr [ %7, %5 ], [ null, %2 ], [ null, %1 ]
  %.sroa.3.0 = phi ptr [ %13, %5 ], [ null, %2 ], [ null, %1 ]
  %.fca.0.insert = insertvalue { ptr, ptr } poison, ptr %.sroa.0.0, 0
  %.fca.1.insert = insertvalue { ptr, ptr } %.fca.0.insert, ptr %.sroa.3.0, 1
  ret { ptr, ptr } %.fca.1.insert
}